; ModuleID = '22/1098.c'
source_filename = "22/1098.c"
target datalayout = "e-m:e-p270:32:32-p271:32:32-p272:64:64-i64:64-f80:128-n8:16:32:64-S128"
target triple = "x86_64-pc-linux-gnu"

@.str = private unnamed_addr constant [4 x i8] c"No\0A\00", align 1
@.str.1 = private unnamed_addr constant [4 x i8] c"%d\0A\00", align 1

; Function Attrs: noinline nounwind uwtable
define dso_local void @paixu(i32* %0, i32 %1) #0 {
  %3 = alloca i32*, align 8
  %4 = alloca i32, align 4
  %5 = alloca i32, align 4
  %6 = alloca i32, align 4
  %7 = alloca i32, align 4
  store i32* %0, i32** %3, align 8
  store i32 %1, i32* %4, align 4
  store i32 0, i32* %5, align 4
  br label %8

8:                                                ; preds = %56, %2
  %9 = load i32, i32* %5, align 4
  %10 = load i32, i32* %4, align 4
  %11 = icmp slt i32 %9, %10
  br i1 %11, label %12, label %59

12:                                               ; preds = %8
  %13 = load i32, i32* %5, align 4
  %14 = add nsw i32 %13, 1
  store i32 %14, i32* %6, align 4
  br label %15

15:                                               ; preds = %52, %12
  %16 = load i32, i32* %6, align 4
  %17 = load i32, i32* %4, align 4
  %18 = icmp slt i32 %16, %17
  br i1 %18, label %19, label %55

19:                                               ; preds = %15
  %20 = load i32*, i32** %3, align 8
  %21 = load i32, i32* %6, align 4
  %22 = sext i32 %21 to i64
  %23 = getelementptr inbounds i32, i32* %20, i64 %22
  %24 = load i32, i32* %23, align 4
  %25 = load i32*, i32** %3, align 8
  %26 = load i32, i32* %5, align 4
  %27 = sext i32 %26 to i64
  %28 = getelementptr inbounds i32, i32* %25, i64 %27
  %29 = load i32, i32* %28, align 4
  %30 = icmp sgt i32 %24, %29
  br i1 %30, label %31, label %51

31:                                               ; preds = %19
  %32 = load i32*, i32** %3, align 8
  %33 = load i32, i32* %5, align 4
  %34 = sext i32 %33 to i64
  %35 = getelementptr inbounds i32, i32* %32, i64 %34
  %36 = load i32, i32* %35, align 4
  store i32 %36, i32* %7, align 4
  %37 = load i32*, i32** %3, align 8
  %38 = load i32, i32* %6, align 4
  %39 = sext i32 %38 to i64
  %40 = getelementptr inbounds i32, i32* %37, i64 %39
  %41 = load i32, i32* %40, align 4
  %42 = load i32*, i32** %3, align 8
  %43 = load i32, i32* %5, align 4
  %44 = sext i32 %43 to i64
  %45 = getelementptr inbounds i32, i32* %42, i64 %44
  store i32 %41, i32* %45, align 4
  %46 = load i32, i32* %7, align 4
  %47 = load i32*, i32** %3, align 8
  %48 = load i32, i32* %6, align 4
  %49 = sext i32 %48 to i64
  %50 = getelementptr inbounds i32, i32* %47, i64 %49
  store i32 %46, i32* %50, align 4
  br label %51

51:                                               ; preds = %31, %19
  br label %52

52:                                               ; preds = %51
  %53 = load i32, i32* %6, align 4
  %54 = add nsw i32 %53, 1
  store i32 %54, i32* %6, align 4
  br label %15

55:                                               ; preds = %15
  br label %56

56:                                               ; preds = %55
  %57 = load i32, i32* %5, align 4
  %58 = add nsw i32 %57, 1
  store i32 %58, i32* %5, align 4
  br label %8

59:                                               ; preds = %8
  ret void
}

; Function Attrs: noinline nounwind uwtable
define dso_local i32 @find(i32* %0, i32 %1) #0 {
  %3 = alloca i32, align 4
  %4 = alloca i32*, align 8
  %5 = alloca i32, align 4
  %6 = alloca i32, align 4
  %7 = alloca i32, align 4
  %8 = alloca i32, align 4
  store i32* %0, i32** %4, align 8
  store i32 %1, i32* %5, align 4
  %9 = load i32*, i32** %4, align 8
  %10 = getelementptr inbounds i32, i32* %9, i64 0
  %11 = load i32, i32* %10, align 4
  store i32 %11, i32* %8, align 4
  %12 = load i32, i32* %5, align 4
  %13 = icmp eq i32 %12, 1
  br i1 %13, label %14, label %15

14:                                               ; preds = %2
  store i32 -1, i32* %3, align 4
  br label %51

15:                                               ; preds = %2
  %16 = load i32*, i32** %4, align 8
  %17 = getelementptr inbounds i32, i32* %16, i64 0
  %18 = load i32, i32* %17, align 4
  %19 = load i32*, i32** %4, align 8
  %20 = load i32, i32* %5, align 4
  %21 = sub nsw i32 %20, 1
  %22 = sext i32 %21 to i64
  %23 = getelementptr inbounds i32, i32* %19, i64 %22
  %24 = load i32, i32* %23, align 4
  %25 = icmp eq i32 %18, %24
  br i1 %25, label %26, label %27

26:                                               ; preds = %15
  store i32 -1, i32* %3, align 4
  br label %51

27:                                               ; preds = %15
  store i32 0, i32* %7, align 4
  br label %28

28:                                               ; preds = %42, %27
  %29 = load i32, i32* %7, align 4
  %30 = load i32, i32* %5, align 4
  %31 = icmp slt i32 %29, %30
  br i1 %31, label %32, label %45

32:                                               ; preds = %28
  %33 = load i32*, i32** %4, align 8
  %34 = load i32, i32* %7, align 4
  %35 = sext i32 %34 to i64
  %36 = getelementptr inbounds i32, i32* %33, i64 %35
  %37 = load i32, i32* %36, align 4
  %38 = load i32, i32* %8, align 4
  %39 = icmp slt i32 %37, %38
  br i1 %39, label %40, label %41

40:                                               ; preds = %32
  br label %45

41:                                               ; preds = %32
  br label %42

42:                                               ; preds = %41
  %43 = load i32, i32* %7, align 4
  %44 = add nsw i32 %43, 1
  store i32 %44, i32* %7, align 4
  br label %28

45:                                               ; preds = %40, %28
  %46 = load i32*, i32** %4, align 8
  %47 = load i32, i32* %7, align 4
  %48 = sext i32 %47 to i64
  %49 = getelementptr inbounds i32, i32* %46, i64 %48
  %50 = load i32, i32* %49, align 4
  store i32 %50, i32* %3, align 4
  br label %51

51:                                               ; preds = %45, %26, %14
  %52 = load i32, i32* %3, align 4
  ret i32 %52
}

; Function Attrs: noinline nounwind uwtable
define dso_local i32 @main() #0 {
  %1 = alloca i32, align 4
  %2 = alloca [310 x i32], align 16
  %3 = alloca i32, align 4
  %4 = alloca i32, align 4
  %5 = alloca i8, align 1
  store i32 0, i32* %1, align 4
  %6 = bitcast [310 x i32]* %2 to i8*
  call void @llvm.memset.p0i8.i64(i8* align 16 %6, i8 0, i64 1240, i1 false)
  store i32 0, i32* %3, align 4
  store i32 0, i32* %4, align 4
  br label %7

7:                                                ; preds = %29, %0
  %8 = call i32 @getchar()
  %9 = trunc i32 %8 to i8
  store i8 %9, i8* %5, align 1
  %10 = sext i8 %9 to i32
  %11 = icmp ne i32 %10, 10
  br i1 %11, label %12, label %30

12:                                               ; preds = %7
  %13 = load i8, i8* %5, align 1
  %14 = sext i8 %13 to i32
  %15 = icmp eq i32 %14, 44
  br i1 %15, label %16, label %22

16:                                               ; preds = %12
  %17 = load i32, i32* %4, align 4
  %18 = load i32, i32* %3, align 4
  %19 = add nsw i32 %18, 1
  store i32 %19, i32* %3, align 4
  %20 = sext i32 %18 to i64
  %21 = getelementptr inbounds [310 x i32], [310 x i32]* %2, i64 0, i64 %20
  store i32 %17, i32* %21, align 4
  store i32 0, i32* %4, align 4
  br label %29

22:                                               ; preds = %12
  %23 = load i32, i32* %4, align 4
  %24 = mul nsw i32 %23, 10
  %25 = load i8, i8* %5, align 1
  %26 = sext i8 %25 to i32
  %27 = add nsw i32 %24, %26
  %28 = sub nsw i32 %27, 48
  store i32 %28, i32* %4, align 4
  br label %29

29:                                               ; preds = %22, %16
  br label %7

30:                                               ; preds = %7
  %31 = load i32, i32* %4, align 4
  %32 = load i32, i32* %3, align 4
  %33 = add nsw i32 %32, 1
  store i32 %33, i32* %3, align 4
  %34 = sext i32 %32 to i64
  %35 = getelementptr inbounds [310 x i32], [310 x i32]* %2, i64 0, i64 %34
  store i32 %31, i32* %35, align 4
  %36 = getelementptr inbounds [310 x i32], [310 x i32]* %2, i64 0, i64 0
  %37 = load i32, i32* %3, align 4
  call void @paixu(i32* %36, i32 %37)
  %38 = getelementptr inbounds [310 x i32], [310 x i32]* %2, i64 0, i64 0
  %39 = load i32, i32* %3, align 4
  %40 = call i32 @find(i32* %38, i32 %39)
  %41 = icmp eq i32 %40, -1
  br i1 %41, label %42, label %44

42:                                               ; preds = %30
  %43 = call i32 (i8*, ...) @printf(i8* getelementptr inbounds ([4 x i8], [4 x i8]* @.str, i64 0, i64 0))
  br label %49

44:                                               ; preds = %30
  %45 = getelementptr inbounds [310 x i32], [310 x i32]* %2, i64 0, i64 0
  %46 = load i32, i32* %3, align 4
  %47 = call i32 @find(i32* %45, i32 %46)
  %48 = call i32 (i8*, ...) @printf(i8* getelementptr inbounds ([4 x i8], [4 x i8]* @.str.1, i64 0, i64 0), i32 %47)
  br label %49

49:                                               ; preds = %44, %42
  ret i32 0
}

; Function Attrs: argmemonly nounwind willreturn
declare void @llvm.memset.p0i8.i64(i8* nocapture writeonly, i8, i64, i1 immarg) #1

declare dso_local i32 @getchar() #2

declare dso_local i32 @printf(i8*, ...) #2


!llvm.module.flags = !{!0}
!llvm.ident = !{!1}

!0 = !{i32 1, !"wchar_size", i32 4}
!1 = !{!"clang version 10.0.0-4ubuntu1 "}
